; Function Attrs: nounwind uwtable
define i32 @Int2_ManChainStart(ptr noundef readonly captures(none) %0, ptr noundef captures(none) %1) local_unnamed_addr #0 {
  %3 = load i32, ptr %1, align 4
  %4 = and i32 %3, 1
  %.not = icmp eq i32 %4, 0
  br i1 %.not, label %16, label %5

5:                                                ; preds = %2
  %6 = load ptr, ptr %0, align 8, !tbaa !3
  %7 = getelementptr i8, ptr %6, i64 208
  %.val37 = load ptr, ptr %7, align 8, !tbaa !59
  %8 = getelementptr inbounds nuw i8, ptr %1, i64 4
  %9 = lshr i32 %3, 11
  %10 = zext nneg i32 %9 to i64
  %11 = getelementptr inbounds nuw [0 x i32], ptr %8, i64 0, i64 %10
  %12 = load i32, ptr %11, align 4, !tbaa !18
  %13 = sext i32 %12 to i64
  %14 = getelementptr inbounds i32, ptr %.val37, i64 %13
  %15 = load i32, ptr %14, align 4, !tbaa !18
  br label %60

16:                                               ; preds = %2
  %17 = and i32 %3, 4
  %.not33 = icmp eq i32 %17, 0
  br i1 %.not33, label %60, label %18

18:                                               ; preds = %16
  %19 = getelementptr inbounds nuw i8, ptr %1, i64 4
  %20 = lshr i32 %3, 11
  %21 = zext nneg i32 %20 to i64
  %22 = getelementptr inbounds nuw [0 x i32], ptr %19, i64 0, i64 %21
  %23 = load i32, ptr %22, align 4, !tbaa !18
  %24 = icmp slt i32 %23, 0
  br i1 %24, label %.preheader, label %57

.preheader:                                       ; preds = %18
  %.not43 = icmp ult i32 %3, 2048
  br i1 %.not43, label %._crit_edge, label %.lr.ph

.lr.ph:                                           ; preds = %.preheader
  %25 = getelementptr inbounds nuw i8, ptr %0, i64 16
  %26 = getelementptr inbounds nuw i8, ptr %0, i64 24
  br label %27

27:                                               ; preds = %.lr.ph, %51
  %28 = phi i32 [ %3, %.lr.ph ], [ %52, %51 ]
  %indvars.iv = phi i64 [ 0, %.lr.ph ], [ %indvars.iv.next, %51 ]
  %.041 = phi i32 [ 0, %.lr.ph ], [ %.1, %51 ]
  %29 = getelementptr inbounds nuw [0 x i32], ptr %19, i64 0, i64 %indvars.iv
  %30 = load i32, ptr %29, align 4, !tbaa !18
  %31 = ashr i32 %30, 1
  %32 = load ptr, ptr %25, align 8, !tbaa !22
  %33 = getelementptr i8, ptr %32, i64 4
  %.val = load i32, ptr %33, align 4, !tbaa !11
  %.not34 = icmp slt i32 %31, %.val
  br i1 %.not34, label %34, label %51

34:                                               ; preds = %27
  %35 = getelementptr i8, ptr %32, i64 8
  %.val35 = load ptr, ptr %35, align 8, !tbaa !16
  %36 = sext i32 %31 to i64
  %37 = getelementptr inbounds i32, ptr %.val35, i64 %36
  %38 = load i32, ptr %37, align 4, !tbaa !18
  %39 = icmp slt i32 %38, 0
  br i1 %39, label %51, label %40

40:                                               ; preds = %34
  %41 = load ptr, ptr %26, align 8, !tbaa !23
  %42 = getelementptr i8, ptr %41, i64 64
  %.val39 = load ptr, ptr %42, align 8, !tbaa !41
  %43 = getelementptr i8, ptr %.val39, i64 8
  %.val39.val = load ptr, ptr %43, align 8, !tbaa !16
  %44 = zext nneg i32 %38 to i64
  %45 = getelementptr inbounds nuw i32, ptr %.val39.val, i64 %44
  %46 = load i32, ptr %45, align 4, !tbaa !18
  %47 = and i32 %30, 1
  %48 = shl nsw i32 %46, 1
  %49 = or disjoint i32 %48, %47
  %50 = tail call i32 @Gia_ManHashOr(ptr noundef %41, i32 noundef %.041, i32 noundef %49) #20
  %.pre = load i32, ptr %1, align 4
  br label %51

51:                                               ; preds = %34, %27, %40
  %52 = phi i32 [ %28, %27 ], [ %28, %34 ], [ %.pre, %40 ]
  %.1 = phi i32 [ %.041, %27 ], [ %.041, %34 ], [ %50, %40 ]
  %indvars.iv.next = add nuw nsw i64 %indvars.iv, 1
  %53 = lshr i32 %52, 11
  %54 = zext nneg i32 %53 to i64
  %55 = icmp samesign ult i64 %indvars.iv.next, %54
  br i1 %55, label %27, label %._crit_edge, !llvm.loop !60

._crit_edge:                                      ; preds = %51, %.preheader
  %.pre-phi = phi i64 [ %21, %.preheader ], [ %54, %51 ]
  %.0.lcssa = phi i32 [ 0, %.preheader ], [ %.1, %51 ]
  %56 = getelementptr inbounds nuw [0 x i32], ptr %19, i64 0, i64 %.pre-phi
  store i32 %.0.lcssa, ptr %56, align 4, !tbaa !18
  br label %57

57:                                               ; preds = %._crit_edge, %18
  %.pre-phi49 = phi i64 [ %.pre-phi, %._crit_edge ], [ %21, %18 ]
  %58 = getelementptr inbounds nuw [0 x i32], ptr %19, i64 0, i64 %.pre-phi49
  %59 = load i32, ptr %58, align 4, !tbaa !18
  br label %60

60:                                               ; preds = %16, %57, %5
  %.029 = phi i32 [ %15, %5 ], [ %59, %57 ], [ 1, %16 ]
  ret i32 %.029
}